target datalayout = "e-m:e-p270:32:32-p271:32:32-p272:64:64-i64:64-i128:128-f80:128-n8:16:32:64-S128"
target triple = "x86_64-pc-linux-gnu"

%struct.dtRaycastHit = type { float, [3 x float], i32, ptr, i32, i32, float }

; Function Attrs: mustprogress nounwind uwtable
define linkonce_odr void @_Z7dtVcopyPfPKf(ptr noundef %0, ptr noundef %1) #0 comdat {
  %3 = alloca ptr, align 8
  %4 = alloca ptr, align 8
  store ptr %0, ptr %3, align 8
  store ptr %1, ptr %4, align 8
  %5 = load ptr, ptr %4, align 8
  %6 = getelementptr inbounds float, ptr %5, i64 0
  %7 = load float, ptr %6, align 4
  %8 = load ptr, ptr %3, align 8
  %9 = getelementptr inbounds float, ptr %8, i64 0
  store float %7, ptr %9, align 4
  %10 = load ptr, ptr %4, align 8
  %11 = getelementptr inbounds float, ptr %10, i64 1
  %12 = load float, ptr %11, align 4
  %13 = load ptr, ptr %3, align 8
  %14 = getelementptr inbounds float, ptr %13, i64 1
  store float %12, ptr %14, align 4
  %15 = load ptr, ptr %4, align 8
  %16 = getelementptr inbounds float, ptr %15, i64 2
  %17 = load float, ptr %16, align 4
  %18 = load ptr, ptr %3, align 8
  %19 = getelementptr inbounds float, ptr %18, i64 2
  store float %17, ptr %19, align 4
  ret void
}

; Function Attrs: mustprogress uwtable
define noundef i32 @_ZNK14dtNavMeshQuery7raycastEjPKfS1_PK13dtQueryFilterPfS5_PjPii(ptr noundef nonnull align 8 dereferenceable(104) %0, i32 noundef %1, ptr noundef %2, ptr noundef %3, ptr noundef %4, ptr noundef %5, ptr noundef %6, ptr noundef %7, ptr noundef %8, i32 noundef %9) #1 align 2 {
  %11 = alloca ptr, align 8
  %12 = alloca i32, align 4
  %13 = alloca ptr, align 8
  %14 = alloca ptr, align 8
  %15 = alloca ptr, align 8
  %16 = alloca ptr, align 8
  %17 = alloca ptr, align 8
  %18 = alloca ptr, align 8
  %19 = alloca ptr, align 8
  %20 = alloca i32, align 4
  %21 = alloca %struct.dtRaycastHit, align 8
  %22 = alloca i32, align 4
  store ptr %0, ptr %11, align 8
  store i32 %1, ptr %12, align 4
  store ptr %2, ptr %13, align 8
  store ptr %3, ptr %14, align 8
  store ptr %4, ptr %15, align 8
  store ptr %5, ptr %16, align 8
  store ptr %6, ptr %17, align 8
  store ptr %7, ptr %18, align 8
  store ptr %8, ptr %19, align 8
  store i32 %9, ptr %20, align 4
  %23 = load ptr, ptr %11, align 8
  %24 = load ptr, ptr %18, align 8
  %25 = getelementptr inbounds %struct.dtRaycastHit, ptr %21, i32 0, i32 3
  store ptr %24, ptr %25, align 8
  %26 = load i32, ptr %20, align 4
  %27 = getelementptr inbounds %struct.dtRaycastHit, ptr %21, i32 0, i32 5
  store i32 %26, ptr %27, align 4
  %28 = load i32, ptr %12, align 4
  %29 = load ptr, ptr %13, align 8
  %30 = load ptr, ptr %14, align 8
  %31 = load ptr, ptr %15, align 8
  %32 = call noundef i32 @_ZNK14dtNavMeshQuery7raycastEjPKfS1_PK13dtQueryFilterjP12dtRaycastHitj(ptr noundef nonnull align 8 dereferenceable(104) %23, i32 noundef %28, ptr noundef %29, ptr noundef %30, ptr noundef %31, i32 noundef 0, ptr noundef %21, i32 noundef 0)
  store i32 %32, ptr %22, align 4
  %33 = getelementptr inbounds %struct.dtRaycastHit, ptr %21, i32 0, i32 0
  %34 = load float, ptr %33, align 8
  %35 = load ptr, ptr %16, align 8
  store float %34, ptr %35, align 4
  %36 = load ptr, ptr %17, align 8
  %37 = icmp ne ptr %36, null
  br i1 %37, label %38, label %42

38:                                               ; preds = %10
  %39 = load ptr, ptr %17, align 8
  %40 = getelementptr inbounds %struct.dtRaycastHit, ptr %21, i32 0, i32 1
  %41 = getelementptr inbounds [3 x float], ptr %40, i64 0, i64 0
  call void @_Z7dtVcopyPfPKf(ptr noundef %39, ptr noundef %41)
  br label %42

42:                                               ; preds = %38, %10
  %43 = load ptr, ptr %19, align 8
  %44 = icmp ne ptr %43, null
  br i1 %44, label %45, label %49

45:                                               ; preds = %42
  %46 = getelementptr inbounds %struct.dtRaycastHit, ptr %21, i32 0, i32 4
  %47 = load i32, ptr %46, align 8
  %48 = load ptr, ptr %19, align 8
  store i32 %47, ptr %48, align 4
  br label %49

49:                                               ; preds = %45, %42
  %50 = load i32, ptr %22, align 4
  ret i32 %50
}