; Function Attrs: mustprogress uwtable
define noundef i32 @_ZNK14dtNavMeshQuery7raycastEjPKfS1_PK13dtQueryFilterPfS5_PjPii(ptr nocapture noundef nonnull readonly align 8 dereferenceable(104) %0, i32 noundef %1, ptr noundef %2, ptr noundef %3, ptr noundef %4, ptr nocapture noundef writeonly %5, ptr noundef writeonly %6, ptr noundef %7, ptr noundef writeonly %8, i32 noundef %9) local_unnamed_addr #1 align 2 {
  %11 = alloca %struct.dtRaycastHit, align 8
  %12 = getelementptr inbounds i8, ptr %11, i64 24
  store ptr %7, ptr %12, align 8
  %13 = getelementptr inbounds i8, ptr %11, i64 36
  store i32 %9, ptr %13, align 4
  %14 = call noundef i32 @_ZNK14dtNavMeshQuery7raycastEjPKfS1_PK13dtQueryFilterjP12dtRaycastHitj(ptr noundef nonnull align 8 dereferenceable(104) %0, i32 noundef %1, ptr noundef %2, ptr noundef %3, ptr noundef %4, i32 noundef 0, ptr noundef nonnull %11, i32 noundef 0), !range !12
  %15 = load float, ptr %11, align 8
  store float %15, ptr %5, align 4
  %.not = icmp eq ptr %6, null
  br i1 %.not, label %22, label %16

16:                                               ; preds = %10
  %17 = getelementptr inbounds i8, ptr %11, i64 4
  %18 = load <2 x float>, ptr %17, align 4
  store <2 x float> %18, ptr %6, align 4
  %19 = getelementptr inbounds i8, ptr %11, i64 12
  %20 = load float, ptr %19, align 4
  %21 = getelementptr inbounds i8, ptr %6, i64 8
  store float %20, ptr %21, align 4
  br label %22

22:                                               ; preds = %16, %10
  %.not13 = icmp eq ptr %8, null
  br i1 %.not13, label %26, label %23

23:                                               ; preds = %22
  %24 = getelementptr inbounds i8, ptr %11, i64 32
  %25 = load i32, ptr %24, align 8
  store i32 %25, ptr %8, align 4
  br label %26

26:                                               ; preds = %23, %22
  ret i32 %14
}